target datalayout = "e-m:e-p270:32:32-p271:32:32-p272:64:64-i64:64-i128:128-f80:128-n8:16:32:64-S128"
target triple = "x86_64-pc-linux-gnu"

%struct.ssl_connection_st = type { %struct.ssl_st, ptr, i32, ptr, ptr, ptr, i32, ptr, i32, i32, i32, i32, %struct.OSSL_TIME, %struct.OSSL_TIME, %struct.ossl_statem_st, i32, ptr, ptr, i64, i64, i64, %struct.ossl_quic_tls_callbacks_st, ptr, ptr, %struct.anon, ptr, ptr, ptr, i32, ptr, %struct.ssl_dane_st, ptr, ptr, ptr, ptr, i32, [64 x i8], [64 x i8], [64 x i8], [64 x i8], [64 x i8], [64 x i8], [64 x i8], [64 x i8], [64 x i8], [64 x i8], [64 x i8], [64 x i8], ptr, [64 x i8], i64, i32, i64, [32 x i8], ptr, ptr, ptr, i64, ptr, [32 x i8], i64, i32, ptr, ptr, i32, i32, ptr, ptr, ptr, ptr, ptr, i64, ptr, ptr, i64, i32, i32, i32, i64, i32, i32, i64, i64, i64, %struct.anon.1, ptr, i32, ptr, ptr, ptr, i32, ptr, ptr, ptr, i32, i32, i32, i32, ptr, i64, i32, ptr, %struct.srp_ctx_st, ptr, %struct.record_layer_st, ptr, ptr, ptr, ptr, i64, i32, i32, i32, i64, i64, i64, ptr, ptr, ptr, ptr, ptr, i64, ptr, i64, ptr, i64 }
%struct.ssl_st = type { i32, ptr, ptr, ptr, %struct.CRYPTO_REF_COUNT, ptr, %struct.crypto_ex_data_st }
%struct.CRYPTO_REF_COUNT = type { i32 }
%struct.crypto_ex_data_st = type { ptr, ptr }
%struct.OSSL_TIME = type { i64 }
%struct.ossl_statem_st = type { i32, i32, i32, i32, i32, i32, i32, i32, i32, i32, i32, i32, i32, ptr, ptr, ptr, i8 }
%struct.ossl_quic_tls_callbacks_st = type { ptr, ptr, ptr, ptr, ptr, ptr }
%struct.anon = type { i64, [32 x i8], [32 x i8], ptr, ptr, i32, i32, i32, i32, [2 x i8], i32, i32, i32, i32, %struct.anon.0, [64 x i8], i64, [64 x i8], i64, i32, i32, ptr, i64, ptr, i64, i32, i8, i8, i16, ptr, i16 }
%struct.anon.0 = type { [128 x i8], i64, [128 x i8], i64, i64, i32, ptr, ptr, [4 x ptr], [4 x i16], i64, i32, ptr, i64, ptr, i64, ptr, ptr, ptr, i32, i64, ptr, i32, ptr, i64, ptr, i64, ptr, i64, ptr, ptr, ptr, ptr, i64, i64, ptr, ptr, i32, i32, i32, i32 }
%struct.ssl_dane_st = type { ptr, ptr, ptr, ptr, ptr, i32, i32, i32, i64 }
%struct.anon.1 = type { [29 x i8], ptr, ptr, ptr, i32, ptr, i16, i32, %struct.anon.2, i32, i32, i64, ptr, i64, ptr, i64, ptr, i64, ptr, i64, ptr, i64, ptr, ptr, ptr, ptr, ptr, ptr, ptr, i64, ptr, i64, i32, i32, i32, i32, ptr, i64, i32, i8, i32, [4 x i32], i32, i8, i8, i8, i8 }
%struct.anon.2 = type { ptr, ptr, ptr, i64 }
%struct.srp_ctx_st = type { ptr, ptr, ptr, ptr, ptr, ptr, ptr, ptr, ptr, ptr, ptr, ptr, ptr, ptr, i32, i64 }
%struct.record_layer_st = type { ptr, ptr, ptr, ptr, ptr, ptr, ptr, ptr, i64, i32, i64, [4 x i8], i64, i64, i8, ptr, i32, ptr, ptr, ptr, i64, i64, i64, i64, [32 x %struct.tls_record_st] }
%struct.tls_record_st = type { ptr, i32, i8, ptr, ptr, i64, i64, i16, [8 x i8] }

@.str.2 = private unnamed_addr constant [24 x i8] c"../openssl/ssl/s3_lib.c\00", align 1

; Function Attrs: inlinehint nounwind uwtable
define internal ptr @ossl_check_X509_NAME_freefunc_type(ptr noundef %0) #2 {
  %2 = alloca ptr, align 8
  store ptr %0, ptr %2, align 8, !tbaa !3
  %3 = load ptr, ptr %2, align 8, !tbaa !3
  ret ptr %3
}

; Function Attrs: inlinehint nounwind uwtable
define internal ptr @ossl_check_X509_NAME_sk_type(ptr noundef %0) #2 {
  %2 = alloca ptr, align 8
  store ptr %0, ptr %2, align 8, !tbaa !105
  %3 = load ptr, ptr %2, align 8, !tbaa !105
  ret ptr %3
}

; Function Attrs: nounwind uwtable
define i32 @ssl3_clear(ptr noundef %0) #0 {
  %2 = alloca i32, align 4
  %3 = alloca ptr, align 8
  %4 = alloca ptr, align 8
  %5 = alloca i32, align 4
  %6 = alloca i64, align 8
  %7 = alloca i32, align 4
  store ptr %0, ptr %3, align 8, !tbaa !23
  call void @llvm.lifetime.start.p0(i64 8, ptr %4) #10
  %8 = load ptr, ptr %3, align 8, !tbaa !23
  %9 = icmp eq ptr %8, null
  br i1 %9, label %10, label %11

10:                                               ; preds = %1
  br label %32

11:                                               ; preds = %1
  %12 = load ptr, ptr %3, align 8, !tbaa !23
  %13 = getelementptr inbounds nuw %struct.ssl_st, ptr %12, i32 0, i32 0
  %14 = load i32, ptr %13, align 8, !tbaa !25
  %15 = icmp eq i32 %14, 0
  br i1 %15, label %16, label %18

16:                                               ; preds = %11
  %17 = load ptr, ptr %3, align 8, !tbaa !23
  br label %30

18:                                               ; preds = %11
  %19 = load ptr, ptr %3, align 8, !tbaa !23
  %20 = getelementptr inbounds nuw %struct.ssl_st, ptr %19, i32 0, i32 0
  %21 = load i32, ptr %20, align 8, !tbaa !25
  %22 = and i32 %21, 128
  %23 = icmp ne i32 %22, 0
  br i1 %23, label %24, label %27

24:                                               ; preds = %18
  %25 = load ptr, ptr %3, align 8, !tbaa !23
  %26 = call ptr @ossl_quic_obj_get0_handshake_layer(ptr noundef %25)
  br label %28

27:                                               ; preds = %18
  br label %28

28:                                               ; preds = %27, %24
  %29 = phi ptr [ %26, %24 ], [ null, %27 ]
  br label %30

30:                                               ; preds = %28, %16
  %31 = phi ptr [ %17, %16 ], [ %29, %28 ]
  br label %32

32:                                               ; preds = %30, %10
  %33 = phi ptr [ null, %10 ], [ %31, %30 ]
  store ptr %33, ptr %4, align 8, !tbaa !13
  call void @llvm.lifetime.start.p0(i64 4, ptr %5) #10
  call void @llvm.lifetime.start.p0(i64 8, ptr %6) #10
  %34 = load ptr, ptr %4, align 8, !tbaa !13
  %35 = icmp eq ptr %34, null
  br i1 %35, label %36, label %37

36:                                               ; preds = %32
  store i32 0, ptr %2, align 4
  store i32 1, ptr %7, align 4
  br label %202

37:                                               ; preds = %32
  %38 = load ptr, ptr %4, align 8, !tbaa !13
  call void @ssl3_cleanup_key_block(ptr noundef %38)
  %39 = load ptr, ptr %4, align 8, !tbaa !13
  %40 = getelementptr inbounds nuw %struct.ssl_connection_st, ptr %39, i32 0, i32 24
  %41 = getelementptr inbounds nuw %struct.anon, ptr %40, i32 0, i32 14
  %42 = getelementptr inbounds nuw %struct.anon.0, ptr %41, i32 0, i32 12
  %43 = load ptr, ptr %42, align 8, !tbaa !93
  call void @CRYPTO_free(ptr noundef %43, ptr noundef @.str.2, i32 noundef 3467)
  %44 = load ptr, ptr %4, align 8, !tbaa !13
  %45 = getelementptr inbounds nuw %struct.ssl_connection_st, ptr %44, i32 0, i32 24
  %46 = getelementptr inbounds nuw %struct.anon, ptr %45, i32 0, i32 14
  %47 = getelementptr inbounds nuw %struct.anon.0, ptr %46, i32 0, i32 14
  %48 = load ptr, ptr %47, align 8, !tbaa !94
  %49 = call ptr @ossl_check_X509_NAME_sk_type(ptr noundef %48)
  %50 = call ptr @ossl_check_X509_NAME_freefunc_type(ptr noundef @X509_NAME_free)
  call void @OPENSSL_sk_pop_free(ptr noundef %49, ptr noundef %50)
  %51 = load ptr, ptr %4, align 8, !tbaa !13
  %52 = getelementptr inbounds nuw %struct.ssl_connection_st, ptr %51, i32 0, i32 24
  %53 = getelementptr inbounds nuw %struct.anon, ptr %52, i32 0, i32 14
  %54 = getelementptr inbounds nuw %struct.anon.0, ptr %53, i32 0, i32 23
  %55 = load ptr, ptr %54, align 8, !tbaa !95
  call void @CRYPTO_free(ptr noundef %55, ptr noundef @.str.2, i32 noundef 3469)
  %56 = load ptr, ptr %4, align 8, !tbaa !13
  %57 = getelementptr inbounds nuw %struct.ssl_connection_st, ptr %56, i32 0, i32 24
  %58 = getelementptr inbounds nuw %struct.anon, ptr %57, i32 0, i32 14
  %59 = getelementptr inbounds nuw %struct.anon.0, ptr %58, i32 0, i32 25
  %60 = load ptr, ptr %59, align 8, !tbaa !96
  %61 = load ptr, ptr %4, align 8, !tbaa !13
  %62 = getelementptr inbounds nuw %struct.ssl_connection_st, ptr %61, i32 0, i32 24
  %63 = getelementptr inbounds nuw %struct.anon, ptr %62, i32 0, i32 14
  %64 = getelementptr inbounds nuw %struct.anon.0, ptr %63, i32 0, i32 26
  %65 = load i64, ptr %64, align 8, !tbaa !97
  call void @CRYPTO_clear_free(ptr noundef %60, i64 noundef %65, ptr noundef @.str.2, i32 noundef 3470)
  %66 = load ptr, ptr %4, align 8, !tbaa !13
  %67 = getelementptr inbounds nuw %struct.ssl_connection_st, ptr %66, i32 0, i32 24
  %68 = getelementptr inbounds nuw %struct.anon, ptr %67, i32 0, i32 14
  %69 = getelementptr inbounds nuw %struct.anon.0, ptr %68, i32 0, i32 31
  %70 = load ptr, ptr %69, align 8, !tbaa !98
  call void @CRYPTO_free(ptr noundef %70, ptr noundef @.str.2, i32 noundef 3471)
  %71 = load ptr, ptr %4, align 8, !tbaa !13
  %72 = getelementptr inbounds nuw %struct.ssl_connection_st, ptr %71, i32 0, i32 24
  %73 = getelementptr inbounds nuw %struct.anon, ptr %72, i32 0, i32 14
  %74 = getelementptr inbounds nuw %struct.anon.0, ptr %73, i32 0, i32 32
  %75 = load ptr, ptr %74, align 8, !tbaa !99
  call void @CRYPTO_free(ptr noundef %75, ptr noundef @.str.2, i32 noundef 3472)
  %76 = load ptr, ptr %4, align 8, !tbaa !13
  %77 = getelementptr inbounds nuw %struct.ssl_connection_st, ptr %76, i32 0, i32 24
  %78 = getelementptr inbounds nuw %struct.anon, ptr %77, i32 0, i32 14
  %79 = getelementptr inbounds nuw %struct.anon.0, ptr %78, i32 0, i32 36
  %80 = load ptr, ptr %79, align 8, !tbaa !100
  call void @CRYPTO_free(ptr noundef %80, ptr noundef @.str.2, i32 noundef 3473)
  %81 = load ptr, ptr %4, align 8, !tbaa !13
  %82 = getelementptr inbounds nuw %struct.ssl_connection_st, ptr %81, i32 0, i32 24
  %83 = getelementptr inbounds nuw %struct.anon, ptr %82, i32 0, i32 29
  %84 = load ptr, ptr %83, align 8, !tbaa !37
  call void @EVP_PKEY_free(ptr noundef %84)
  store i64 0, ptr %6, align 8, !tbaa !16
  br label %85

85:                                               ; preds = %136, %37
  %86 = load i64, ptr %6, align 8, !tbaa !16
  %87 = load ptr, ptr %4, align 8, !tbaa !13
  %88 = getelementptr inbounds nuw %struct.ssl_connection_st, ptr %87, i32 0, i32 24
  %89 = getelementptr inbounds nuw %struct.anon, ptr %88, i32 0, i32 14
  %90 = getelementptr inbounds nuw %struct.anon.0, ptr %89, i32 0, i32 10
  %91 = load i64, ptr %90, align 8, !tbaa !86
  %92 = icmp ult i64 %86, %91
  br i1 %92, label %93, label %139

93:                                               ; preds = %85
  %94 = load ptr, ptr %4, align 8, !tbaa !13
  %95 = getelementptr inbounds nuw %struct.ssl_connection_st, ptr %94, i32 0, i32 24
  %96 = getelementptr inbounds nuw %struct.anon, ptr %95, i32 0, i32 14
  %97 = getelementptr inbounds nuw %struct.anon.0, ptr %96, i32 0, i32 8
  %98 = load i64, ptr %6, align 8, !tbaa !16
  %99 = getelementptr inbounds nuw [4 x ptr], ptr %97, i64 0, i64 %98
  %100 = load ptr, ptr %99, align 8, !tbaa !87
  %101 = icmp ne ptr %100, null
  br i1 %101, label %102, label %135

102:                                              ; preds = %93
  %103 = load ptr, ptr %4, align 8, !tbaa !13
  %104 = getelementptr inbounds nuw %struct.ssl_connection_st, ptr %103, i32 0, i32 24
  %105 = getelementptr inbounds nuw %struct.anon, ptr %104, i32 0, i32 14
  %106 = getelementptr inbounds nuw %struct.anon.0, ptr %105, i32 0, i32 7
  %107 = load ptr, ptr %106, align 8, !tbaa !88
  %108 = load ptr, ptr %4, align 8, !tbaa !13
  %109 = getelementptr inbounds nuw %struct.ssl_connection_st, ptr %108, i32 0, i32 24
  %110 = getelementptr inbounds nuw %struct.anon, ptr %109, i32 0, i32 14
  %111 = getelementptr inbounds nuw %struct.anon.0, ptr %110, i32 0, i32 8
  %112 = load i64, ptr %6, align 8, !tbaa !16
  %113 = getelementptr inbounds nuw [4 x ptr], ptr %111, i64 0, i64 %112
  %114 = load ptr, ptr %113, align 8, !tbaa !87
  %115 = icmp eq ptr %107, %114
  br i1 %115, label %116, label %121

116:                                              ; preds = %102
  %117 = load ptr, ptr %4, align 8, !tbaa !13
  %118 = getelementptr inbounds nuw %struct.ssl_connection_st, ptr %117, i32 0, i32 24
  %119 = getelementptr inbounds nuw %struct.anon, ptr %118, i32 0, i32 14
  %120 = getelementptr inbounds nuw %struct.anon.0, ptr %119, i32 0, i32 7
  store ptr null, ptr %120, align 8, !tbaa !88
  br label %121

121:                                              ; preds = %116, %102
  %122 = load ptr, ptr %4, align 8, !tbaa !13
  %123 = getelementptr inbounds nuw %struct.ssl_connection_st, ptr %122, i32 0, i32 24
  %124 = getelementptr inbounds nuw %struct.anon, ptr %123, i32 0, i32 14
  %125 = getelementptr inbounds nuw %struct.anon.0, ptr %124, i32 0, i32 8
  %126 = load i64, ptr %6, align 8, !tbaa !16
  %127 = getelementptr inbounds nuw [4 x ptr], ptr %125, i64 0, i64 %126
  %128 = load ptr, ptr %127, align 8, !tbaa !87
  call void @EVP_PKEY_free(ptr noundef %128)
  %129 = load ptr, ptr %4, align 8, !tbaa !13
  %130 = getelementptr inbounds nuw %struct.ssl_connection_st, ptr %129, i32 0, i32 24
  %131 = getelementptr inbounds nuw %struct.anon, ptr %130, i32 0, i32 14
  %132 = getelementptr inbounds nuw %struct.anon.0, ptr %131, i32 0, i32 8
  %133 = load i64, ptr %6, align 8, !tbaa !16
  %134 = getelementptr inbounds nuw [4 x ptr], ptr %132, i64 0, i64 %133
  store ptr null, ptr %134, align 8, !tbaa !87
  br label %135

135:                                              ; preds = %121, %93
  br label %136

136:                                              ; preds = %135
  %137 = load i64, ptr %6, align 8, !tbaa !16
  %138 = add i64 %137, 1
  store i64 %138, ptr %6, align 8, !tbaa !16
  br label %85, !llvm.loop !106

139:                                              ; preds = %85
  %140 = load ptr, ptr %4, align 8, !tbaa !13
  %141 = getelementptr inbounds nuw %struct.ssl_connection_st, ptr %140, i32 0, i32 24
  %142 = getelementptr inbounds nuw %struct.anon, ptr %141, i32 0, i32 14
  %143 = getelementptr inbounds nuw %struct.anon.0, ptr %142, i32 0, i32 10
  store i64 0, ptr %143, align 8, !tbaa !86
  %144 = load ptr, ptr %4, align 8, !tbaa !13
  %145 = getelementptr inbounds nuw %struct.ssl_connection_st, ptr %144, i32 0, i32 24
  %146 = getelementptr inbounds nuw %struct.anon, ptr %145, i32 0, i32 14
  %147 = getelementptr inbounds nuw %struct.anon.0, ptr %146, i32 0, i32 7
  %148 = load ptr, ptr %147, align 8, !tbaa !88
  %149 = icmp ne ptr %148, null
  br i1 %149, label %150, label %160

150:                                              ; preds = %139
  %151 = load ptr, ptr %4, align 8, !tbaa !13
  %152 = getelementptr inbounds nuw %struct.ssl_connection_st, ptr %151, i32 0, i32 24
  %153 = getelementptr inbounds nuw %struct.anon, ptr %152, i32 0, i32 14
  %154 = getelementptr inbounds nuw %struct.anon.0, ptr %153, i32 0, i32 7
  %155 = load ptr, ptr %154, align 8, !tbaa !88
  call void @EVP_PKEY_free(ptr noundef %155)
  %156 = load ptr, ptr %4, align 8, !tbaa !13
  %157 = getelementptr inbounds nuw %struct.ssl_connection_st, ptr %156, i32 0, i32 24
  %158 = getelementptr inbounds nuw %struct.anon, ptr %157, i32 0, i32 14
  %159 = getelementptr inbounds nuw %struct.anon.0, ptr %158, i32 0, i32 7
  store ptr null, ptr %159, align 8, !tbaa !88
  br label %160

160:                                              ; preds = %150, %139
  %161 = load ptr, ptr %4, align 8, !tbaa !13
  call void @ssl3_free_digest_list(ptr noundef %161)
  %162 = load ptr, ptr %4, align 8, !tbaa !13
  %163 = getelementptr inbounds nuw %struct.ssl_connection_st, ptr %162, i32 0, i32 24
  %164 = getelementptr inbounds nuw %struct.anon, ptr %163, i32 0, i32 21
  %165 = load ptr, ptr %164, align 8, !tbaa !101
  call void @CRYPTO_free(ptr noundef %165, ptr noundef @.str.2, i32 noundef 3494)
  %166 = load ptr, ptr %4, align 8, !tbaa !13
  %167 = getelementptr inbounds nuw %struct.ssl_connection_st, ptr %166, i32 0, i32 24
  %168 = getelementptr inbounds nuw %struct.anon, ptr %167, i32 0, i32 23
  %169 = load ptr, ptr %168, align 8, !tbaa !102
  call void @CRYPTO_free(ptr noundef %169, ptr noundef @.str.2, i32 noundef 3495)
  %170 = load ptr, ptr %4, align 8, !tbaa !13
  %171 = getelementptr inbounds nuw %struct.ssl_connection_st, ptr %170, i32 0, i32 24
  %172 = getelementptr inbounds nuw %struct.anon, ptr %171, i32 0, i32 0
  %173 = load i64, ptr %172, align 8, !tbaa !107
  %174 = and i64 %173, 8192
  %175 = trunc i64 %174 to i32
  store i32 %175, ptr %5, align 4, !tbaa !18
  %176 = load ptr, ptr %4, align 8, !tbaa !13
  %177 = getelementptr inbounds nuw %struct.ssl_connection_st, ptr %176, i32 0, i32 24
  call void @llvm.memset.p0.i64(ptr align 8 %177, i8 0, i64 912, i1 false)
  %178 = load i32, ptr %5, align 4, !tbaa !18
  %179 = sext i32 %178 to i64
  %180 = load ptr, ptr %4, align 8, !tbaa !13
  %181 = getelementptr inbounds nuw %struct.ssl_connection_st, ptr %180, i32 0, i32 24
  %182 = getelementptr inbounds nuw %struct.anon, ptr %181, i32 0, i32 0
  %183 = load i64, ptr %182, align 8, !tbaa !107
  %184 = or i64 %183, %179
  store i64 %184, ptr %182, align 8, !tbaa !107
  %185 = load ptr, ptr %4, align 8, !tbaa !13
  %186 = call i32 @ssl_free_wbio_buffer(ptr noundef %185)
  %187 = icmp ne i32 %186, 0
  br i1 %187, label %189, label %188

188:                                              ; preds = %160
  store i32 0, ptr %2, align 4
  store i32 1, ptr %7, align 4
  br label %202

189:                                              ; preds = %160
  %190 = load ptr, ptr %4, align 8, !tbaa !13
  %191 = getelementptr inbounds nuw %struct.ssl_connection_st, ptr %190, i32 0, i32 2
  store i32 768, ptr %191, align 8, !tbaa !108
  %192 = load ptr, ptr %4, align 8, !tbaa !13
  %193 = getelementptr inbounds nuw %struct.ssl_connection_st, ptr %192, i32 0, i32 84
  %194 = getelementptr inbounds nuw %struct.anon.1, ptr %193, i32 0, i32 30
  %195 = load ptr, ptr %194, align 8, !tbaa !109
  call void @CRYPTO_free(ptr noundef %195, ptr noundef @.str.2, i32 noundef 3511)
  %196 = load ptr, ptr %4, align 8, !tbaa !13
  %197 = getelementptr inbounds nuw %struct.ssl_connection_st, ptr %196, i32 0, i32 84
  %198 = getelementptr inbounds nuw %struct.anon.1, ptr %197, i32 0, i32 30
  store ptr null, ptr %198, align 8, !tbaa !109
  %199 = load ptr, ptr %4, align 8, !tbaa !13
  %200 = getelementptr inbounds nuw %struct.ssl_connection_st, ptr %199, i32 0, i32 84
  %201 = getelementptr inbounds nuw %struct.anon.1, ptr %200, i32 0, i32 31
  store i64 0, ptr %201, align 8, !tbaa !110
  store i32 1, ptr %2, align 4
  store i32 1, ptr %7, align 4
  br label %202

202:                                              ; preds = %189, %188, %36
  call void @llvm.lifetime.end.p0(i64 8, ptr %6) #10
  call void @llvm.lifetime.end.p0(i64 4, ptr %5) #10
  call void @llvm.lifetime.end.p0(i64 8, ptr %4) #10
  %203 = load i32, ptr %2, align 4
  ret i32 %203
}