; Function Attrs: nounwind uwtable
define range(i32 0, 2) i32 @ssl3_clear(ptr noundef %0) local_unnamed_addr #4 {
  %2 = icmp eq ptr %0, null
  br i1 %2, label %.thread, label %3

3:                                                ; preds = %1
  %4 = load i32, ptr %0, align 8, !tbaa !10
  %5 = icmp eq i32 %4, 0
  br i1 %5, label %.thread54, label %6

6:                                                ; preds = %3
  %7 = and i32 %4, 128
  %.not = icmp eq i32 %7, 0
  br i1 %.not, label %.thread, label %8

8:                                                ; preds = %6
  %9 = tail call ptr @ossl_quic_obj_get0_handshake_layer(ptr noundef nonnull %0) #18
  %10 = icmp eq ptr %9, null
  br i1 %10, label %.thread, label %.thread54

.thread54:                                        ; preds = %3, %8
  %11 = phi ptr [ %9, %8 ], [ %0, %3 ]
  tail call void @ssl3_cleanup_key_block(ptr noundef nonnull %11) #18
  %12 = getelementptr inbounds nuw i8, ptr %11, i64 352
  %13 = getelementptr inbounds nuw i8, ptr %11, i64 840
  %14 = load ptr, ptr %13, align 8, !tbaa !83
  tail call void @CRYPTO_free(ptr noundef %14, ptr noundef nonnull @.str.2, i32 noundef 3467) #18
  %15 = getelementptr inbounds nuw i8, ptr %11, i64 856
  %16 = load ptr, ptr %15, align 8, !tbaa !84
  tail call void @OPENSSL_sk_pop_free(ptr noundef %16, ptr noundef nonnull @X509_NAME_free) #18
  %17 = getelementptr inbounds nuw i8, ptr %11, i64 928
  %18 = load ptr, ptr %17, align 8, !tbaa !85
  tail call void @CRYPTO_free(ptr noundef %18, ptr noundef nonnull @.str.2, i32 noundef 3469) #18
  %19 = getelementptr inbounds nuw i8, ptr %11, i64 944
  %20 = load ptr, ptr %19, align 8, !tbaa !86
  %21 = getelementptr inbounds nuw i8, ptr %11, i64 952
  %22 = load i64, ptr %21, align 8, !tbaa !87
  tail call void @CRYPTO_clear_free(ptr noundef %20, i64 noundef %22, ptr noundef nonnull @.str.2, i32 noundef 3470) #18
  %23 = getelementptr inbounds nuw i8, ptr %11, i64 992
  %24 = load ptr, ptr %23, align 8, !tbaa !88
  tail call void @CRYPTO_free(ptr noundef %24, ptr noundef nonnull @.str.2, i32 noundef 3471) #18
  %25 = getelementptr inbounds nuw i8, ptr %11, i64 1000
  %26 = load ptr, ptr %25, align 8, !tbaa !89
  tail call void @CRYPTO_free(ptr noundef %26, ptr noundef nonnull @.str.2, i32 noundef 3472) #18
  %27 = getelementptr inbounds nuw i8, ptr %11, i64 1032
  %28 = load ptr, ptr %27, align 8, !tbaa !90
  tail call void @CRYPTO_free(ptr noundef %28, ptr noundef nonnull @.str.2, i32 noundef 3473) #18
  %29 = getelementptr inbounds nuw i8, ptr %11, i64 1248
  %30 = load ptr, ptr %29, align 8, !tbaa !23
  tail call void @EVP_PKEY_free(ptr noundef %30) #18
  %31 = getelementptr inbounds nuw i8, ptr %11, i64 824
  %32 = load i64, ptr %31, align 8, !tbaa !76
  %.not56 = icmp eq i64 %32, 0
  br i1 %.not56, label %._crit_edge, label %.lr.ph

.lr.ph:                                           ; preds = %.thread54
  %33 = getelementptr inbounds nuw i8, ptr %11, i64 784
  %34 = getelementptr inbounds nuw i8, ptr %11, i64 776
  br label %35

35:                                               ; preds = %.lr.ph, %44
  %36 = phi i64 [ %32, %.lr.ph ], [ %45, %44 ]
  %.055 = phi i64 [ 0, %.lr.ph ], [ %46, %44 ]
  %37 = getelementptr inbounds nuw [4 x ptr], ptr %33, i64 0, i64 %.055
  %38 = load ptr, ptr %37, align 8, !tbaa !77
  %.not53 = icmp eq ptr %38, null
  br i1 %.not53, label %44, label %39

39:                                               ; preds = %35
  %40 = load ptr, ptr %34, align 8, !tbaa !78
  %41 = icmp eq ptr %40, %38
  br i1 %41, label %42, label %43

42:                                               ; preds = %39
  store ptr null, ptr %34, align 8, !tbaa !78
  br label %43

43:                                               ; preds = %42, %39
  tail call void @EVP_PKEY_free(ptr noundef nonnull %38) #18
  store ptr null, ptr %37, align 8, !tbaa !77
  %.pre = load i64, ptr %31, align 8, !tbaa !76
  br label %44

44:                                               ; preds = %35, %43
  %45 = phi i64 [ %36, %35 ], [ %.pre, %43 ]
  %46 = add nuw i64 %.055, 1
  %47 = icmp ult i64 %46, %45
  br i1 %47, label %35, label %._crit_edge, !llvm.loop !95

._crit_edge:                                      ; preds = %44, %.thread54
  store i64 0, ptr %31, align 8, !tbaa !76
  %48 = getelementptr inbounds nuw i8, ptr %11, i64 776
  %49 = load ptr, ptr %48, align 8, !tbaa !78
  %.not51 = icmp eq ptr %49, null
  br i1 %.not51, label %51, label %50

50:                                               ; preds = %._crit_edge
  tail call void @EVP_PKEY_free(ptr noundef nonnull %49) #18
  store ptr null, ptr %48, align 8, !tbaa !78
  br label %51

51:                                               ; preds = %50, %._crit_edge
  tail call void @ssl3_free_digest_list(ptr noundef nonnull %11) #18
  %52 = getelementptr inbounds nuw i8, ptr %11, i64 1208
  %53 = load ptr, ptr %52, align 8, !tbaa !91
  tail call void @CRYPTO_free(ptr noundef %53, ptr noundef nonnull @.str.2, i32 noundef 3494) #18
  %54 = getelementptr inbounds nuw i8, ptr %11, i64 1224
  %55 = load ptr, ptr %54, align 8, !tbaa !92
  tail call void @CRYPTO_free(ptr noundef %55, ptr noundef nonnull @.str.2, i32 noundef 3495) #18
  %56 = load i64, ptr %12, align 8, !tbaa !96
  %57 = and i64 %56, 8192
  %58 = getelementptr inbounds nuw i8, ptr %11, i64 360
  tail call void @llvm.memset.p0.i64(ptr noundef nonnull align 8 dereferenceable(912) %58, i8 0, i64 904, i1 false)
  store i64 %57, ptr %12, align 8, !tbaa !96
  %59 = tail call i32 @ssl_free_wbio_buffer(ptr noundef nonnull %11) #18
  %.not52 = icmp eq i32 %59, 0
  br i1 %.not52, label %.thread, label %60

60:                                               ; preds = %51
  %61 = getelementptr inbounds nuw i8, ptr %11, i64 72
  store i32 768, ptr %61, align 8, !tbaa !97
  %62 = getelementptr inbounds nuw i8, ptr %11, i64 2816
  %63 = load ptr, ptr %62, align 8, !tbaa !98
  tail call void @CRYPTO_free(ptr noundef %63, ptr noundef nonnull @.str.2, i32 noundef 3511) #18
  tail call void @llvm.memset.p0.i64(ptr noundef nonnull align 8 dereferenceable(16) %62, i8 0, i64 16, i1 false)
  br label %.thread

.thread:                                          ; preds = %6, %1, %51, %8, %60
  %.045 = phi i32 [ 1, %60 ], [ 0, %8 ], [ 0, %51 ], [ 0, %1 ], [ 0, %6 ]
  ret i32 %.045
}